target datalayout = "e-m:e-p270:32:32-p271:32:32-p272:64:64-i64:64-i128:128-f80:128-n8:16:32:64-S128"
target triple = "x86_64-pc-linux-gnu"

%class.QModelIndex = type { i32, i32, i64, ptr }
%class.QObject = type { ptr, %class.QScopedPointer }
%class.QScopedPointer = type { ptr }
%class.QPaintDevice.base = type <{ ptr, i16 }>
%class.QList.9 = type { %struct.QArrayDataPointer.12 }
%struct.QArrayDataPointer.12 = type { ptr, ptr, i64 }
%class.PacketList = type { %class.QTreeView, ptr, ptr, ptr, ptr, %class.QMenu, %class.QMenu, %class.QMenu, i32, %class.QByteArray, ptr, i32, i8, i8, %class.QList, i8, %class.QModelIndex, %class.RelatedPacketDelegate, ptr, %class.QList.1, i8, i8, i8, i8, i8, %class.QModelIndex, %class.QList.5, %class.QList.9, i32, i8, ptr }
%class.QTreeView = type { %class.QAbstractItemView }
%class.QAbstractItemView = type { %class.QAbstractScrollArea }
%class.QAbstractScrollArea = type { %class.QFrame }
%class.QFrame = type { %class.QWidget }
%class.QWidget = type { %class.QObject, %class.QPaintDevice.base, ptr }
%class.QMenu = type { %class.QWidget }
%class.QByteArray = type { %struct.QArrayDataPointer }
%struct.QArrayDataPointer = type { ptr, ptr, i64 }
%class.QList = type { %struct.QArrayDataPointer.0 }
%struct.QArrayDataPointer.0 = type { ptr, ptr, i64 }
%class.RelatedPacketDelegate = type <{ %class.QStyledItemDelegate, %class.QHash, ptr, i32, [4 x i8] }>
%class.QStyledItemDelegate = type { %class.QAbstractItemDelegate }
%class.QAbstractItemDelegate = type { %class.QObject }
%class.QHash = type { ptr }
%class.QList.1 = type { %struct.QArrayDataPointer.4 }
%struct.QArrayDataPointer.4 = type { ptr, ptr, i64 }
%class.QList.5 = type { %struct.QArrayDataPointer.8 }
%struct.QArrayDataPointer.8 = type { ptr, ptr, i64 }
%class.QExplicitlySharedDataPointer = type { ptr }
%class.QFont = type <{ %class.QExplicitlySharedDataPointer, i32, [4 x i8] }>
%class.QRect = type { i32, i32, i32, i32 }
%class.QPalette = type <{ ptr, i32, [4 x i8] }>
%class.QWidgetData = type { i64, i32, %class.QFlags.83, i32, %class.QRect, [4 x i8], %class.QPalette, %class.QFont, %class.QRect }
%class.QFlags.83 = type { i32 }

; Function Attrs: mustprogress uwtable
define linkonce_odr noundef zeroext i1 @_ZNK7QWidget13testAttributeEN2Qt15WidgetAttributeE(ptr noundef nonnull align 8 dereferenceable(40) %0, i32 noundef %1) #0 comdat align 2 {
  %3 = alloca i1, align 1
  %4 = alloca ptr, align 8
  %5 = alloca i32, align 4
  store ptr %0, ptr %4, align 8
  store i32 %1, ptr %5, align 4
  %6 = load ptr, ptr %4, align 8
  %7 = load i32, ptr %5, align 4
  %8 = icmp slt i32 %7, 32
  br i1 %8, label %9, label %18

9:                                                ; preds = %2
  %10 = getelementptr inbounds %class.QWidget, ptr %6, i32 0, i32 2
  %11 = load ptr, ptr %10, align 8
  %12 = getelementptr inbounds %class.QWidgetData, ptr %11, i32 0, i32 1
  %13 = load i32, ptr %12, align 8
  %14 = load i32, ptr %5, align 4
  %15 = shl i32 1, %14
  %16 = and i32 %13, %15
  %17 = icmp ne i32 %16, 0
  store i1 %17, ptr %3, align 1
  br label %21

18:                                               ; preds = %2
  %19 = load i32, ptr %5, align 4
  %20 = call noundef zeroext i1 @_ZNK7QWidget20testAttribute_helperEN2Qt15WidgetAttributeE(ptr noundef nonnull align 8 dereferenceable(40) %6, i32 noundef %19)
  store i1 %20, ptr %3, align 1
  br label %21

21:                                               ; preds = %18, %9
  %22 = load i1, ptr %3, align 1
  ret i1 %22
}

; Function Attrs: mustprogress uwtable
define linkonce_odr noundef zeroext i1 @_ZNK7QWidget9isVisibleEv(ptr noundef nonnull align 8 dereferenceable(40) %0) #0 comdat align 2 {
  %2 = alloca ptr, align 8
  store ptr %0, ptr %2, align 8
  %3 = load ptr, ptr %2, align 8
  %4 = call noundef zeroext i1 @_ZNK7QWidget13testAttributeEN2Qt15WidgetAttributeE(ptr noundef nonnull align 8 dereferenceable(40) %3, i32 noundef 15)
  ret i1 %4
}

; Function Attrs: mustprogress uwtable
define void @_ZN10PacketList14sectionResizedEiii(ptr noundef nonnull align 8 dereferenceable(464) %0, i32 noundef %1, i32 noundef %2, i32 noundef %3) #0 align 2 {
  %5 = alloca ptr, align 8
  %6 = alloca i32, align 4
  %7 = alloca i32, align 4
  %8 = alloca i32, align 4
  store ptr %0, ptr %5, align 8
  store i32 %1, ptr %6, align 4
  store i32 %2, ptr %7, align 4
  store i32 %3, ptr %8, align 4
  %9 = load ptr, ptr %5, align 8
  %10 = call noundef zeroext i1 @_ZNK7QWidget9isVisibleEv(ptr noundef nonnull align 8 dereferenceable(40) %9)
  br i1 %10, label %11, label %29

11:                                               ; preds = %4
  %12 = getelementptr inbounds %class.PacketList, ptr %9, i32 0, i32 22
  %13 = load i8, ptr %12, align 2
  %14 = trunc i8 %13 to i1
  br i1 %14, label %29, label %15

15:                                               ; preds = %11
  %16 = getelementptr inbounds %class.PacketList, ptr %9, i32 0, i32 23
  %17 = load i8, ptr %16, align 1
  %18 = trunc i8 %17 to i1
  br i1 %18, label %29, label %19

19:                                               ; preds = %15
  %20 = getelementptr inbounds %class.PacketList, ptr %9, i32 0, i32 24
  %21 = load i8, ptr %20, align 4
  %22 = trunc i8 %21 to i1
  br i1 %22, label %29, label %23

23:                                               ; preds = %19
  %24 = load i32, ptr %8, align 4
  %25 = icmp sgt i32 %24, 0
  br i1 %25, label %26, label %29

26:                                               ; preds = %23
  %27 = load i32, ptr %6, align 4
  %28 = load i32, ptr %8, align 4
  call void @recent_set_column_width(i32 noundef %27, i32 noundef %28)
  br label %29

29:                                               ; preds = %26, %23, %19, %15, %11, %4
  ret void
}