; Function Attrs: mustprogress uwtable
define void @_ZN10PacketList14sectionResizedEiii(ptr nocapture noundef nonnull readonly align 8 dereferenceable(464) %0, i32 noundef %1, i32 noundef %2, i32 noundef %3) local_unnamed_addr #0 align 2 {
  %5 = getelementptr inbounds i8, ptr %0, i64 32
  %6 = load ptr, ptr %5, align 8
  %7 = getelementptr inbounds i8, ptr %6, i64 8
  %8 = load i32, ptr %7, align 8
  %9 = and i32 %8, 32768
  %.not = icmp eq i32 %9, 0
  br i1 %.not, label %24, label %10

10:                                               ; preds = %4
  %11 = getelementptr inbounds i8, ptr %0, i64 370
  %12 = load i8, ptr %11, align 2
  %13 = and i8 %12, 1
  %.not4 = icmp eq i8 %13, 0
  br i1 %.not4, label %14, label %24

14:                                               ; preds = %10
  %15 = getelementptr inbounds i8, ptr %0, i64 371
  %16 = load i8, ptr %15, align 1
  %17 = and i8 %16, 1
  %.not5 = icmp eq i8 %17, 0
  br i1 %.not5, label %18, label %24

18:                                               ; preds = %14
  %19 = getelementptr inbounds i8, ptr %0, i64 372
  %20 = load i8, ptr %19, align 4
  %21 = and i8 %20, 1
  %.not6 = icmp eq i8 %21, 0
  %22 = icmp sgt i32 %3, 0
  %or.cond = and i1 %22, %.not6
  br i1 %or.cond, label %23, label %24

23:                                               ; preds = %18
  tail call void @recent_set_column_width(i32 noundef %1, i32 noundef %3)
  br label %24

24:                                               ; preds = %23, %18, %14, %10, %4
  ret void
}